target datalayout = "e-m:e-p270:32:32-p271:32:32-p272:64:64-i64:64-i128:128-f80:128-n8:16:32:64-S128"
target triple = "x86_64-pc-linux-gnu"

%"class.ceres::LossFunction" = type { ptr }
%"class.ceres::ComposedLoss" = type { %"class.ceres::LossFunction", %"class.std::unique_ptr.2", %"class.std::unique_ptr.2", i32, i32 }
%"class.std::unique_ptr.2" = type { %"struct.std::__uniq_ptr_data.3" }
%"struct.std::__uniq_ptr_data.3" = type { %"class.std::__uniq_ptr_impl.4" }
%"class.std::__uniq_ptr_impl.4" = type { %"class.std::tuple.5" }
%"class.std::tuple.5" = type { %"struct.std::_Tuple_impl.6" }
%"struct.std::_Tuple_impl.6" = type { %"struct.std::_Head_base.9" }
%"struct.std::_Head_base.9" = type { ptr }

; Function Attrs: mustprogress nounwind uwtable
define linkonce_odr hidden noundef nonnull align 8 dereferenceable(8) ptr @_ZNSt10_Head_baseILm0EPKN5ceres12LossFunctionELb0EE7_M_headERKS4_(ptr noundef nonnull align 8 dereferenceable(8) %0) #0 comdat align 2 {
  %2 = alloca ptr, align 8
  store ptr %0, ptr %2, align 8, !tbaa !97
  %3 = load ptr, ptr %2, align 8, !tbaa !97
  %4 = getelementptr inbounds nuw %"struct.std::_Head_base.9", ptr %3, i32 0, i32 0
  ret ptr %4
}

; Function Attrs: mustprogress nounwind uwtable
define linkonce_odr hidden noundef nonnull align 8 dereferenceable(8) ptr @_ZNSt11_Tuple_implILm0EJPKN5ceres12LossFunctionESt14default_deleteIS2_EEE7_M_headERKS6_(ptr noundef nonnull align 8 dereferenceable(8) %0) #0 comdat align 2 {
  %2 = alloca ptr, align 8
  store ptr %0, ptr %2, align 8, !tbaa !93
  %3 = load ptr, ptr %2, align 8, !tbaa !93
  %4 = call noundef nonnull align 8 dereferenceable(8) ptr @_ZNSt10_Head_baseILm0EPKN5ceres12LossFunctionELb0EE7_M_headERKS4_(ptr noundef nonnull align 8 dereferenceable(8) %3) #15
  ret ptr %4
}

; Function Attrs: mustprogress nounwind uwtable
define linkonce_odr hidden noundef nonnull align 8 dereferenceable(8) ptr @_ZSt12__get_helperILm0EPKN5ceres12LossFunctionEJSt14default_deleteIS2_EEERKT0_RKSt11_Tuple_implIXT_EJS6_DpT1_EE(ptr noundef nonnull align 8 dereferenceable(8) %0) #0 comdat {
  %2 = alloca ptr, align 8
  store ptr %0, ptr %2, align 8, !tbaa !93
  %3 = load ptr, ptr %2, align 8, !tbaa !93
  %4 = call noundef nonnull align 8 dereferenceable(8) ptr @_ZNSt11_Tuple_implILm0EJPKN5ceres12LossFunctionESt14default_deleteIS2_EEE7_M_headERKS6_(ptr noundef nonnull align 8 dereferenceable(8) %3) #15
  ret ptr %4
}

; Function Attrs: mustprogress nounwind uwtable
define linkonce_odr hidden noundef nonnull align 8 dereferenceable(8) ptr @_ZSt3getILm0EJPKN5ceres12LossFunctionESt14default_deleteIS2_EEERKNSt13tuple_elementIXT_ESt5tupleIJDpT0_EEE4typeERKSA_(ptr noundef nonnull align 8 dereferenceable(8) %0) #0 comdat {
  %2 = alloca ptr, align 8
  store ptr %0, ptr %2, align 8, !tbaa !91
  %3 = load ptr, ptr %2, align 8, !tbaa !91
  %4 = call noundef nonnull align 8 dereferenceable(8) ptr @_ZSt12__get_helperILm0EPKN5ceres12LossFunctionEJSt14default_deleteIS2_EEERKT0_RKSt11_Tuple_implIXT_EJS6_DpT1_EE(ptr noundef nonnull align 8 dereferenceable(8) %3) #15
  ret ptr %4
}

; Function Attrs: mustprogress nounwind uwtable
define linkonce_odr hidden noundef ptr @_ZNKSt15__uniq_ptr_implIKN5ceres12LossFunctionESt14default_deleteIS2_EE6_M_ptrEv(ptr noundef nonnull align 8 dereferenceable(8) %0) #0 comdat align 2 {
  %2 = alloca ptr, align 8
  store ptr %0, ptr %2, align 8, !tbaa !89
  %3 = load ptr, ptr %2, align 8
  %4 = getelementptr inbounds nuw %"class.std::__uniq_ptr_impl.4", ptr %3, i32 0, i32 0
  %5 = call noundef nonnull align 8 dereferenceable(8) ptr @_ZSt3getILm0EJPKN5ceres12LossFunctionESt14default_deleteIS2_EEERKNSt13tuple_elementIXT_ESt5tupleIJDpT0_EEE4typeERKSA_(ptr noundef nonnull align 8 dereferenceable(8) %4) #15
  %6 = load ptr, ptr %5, align 8, !tbaa !3
  ret ptr %6
}

; Function Attrs: mustprogress nounwind uwtable
define linkonce_odr hidden noundef ptr @_ZNKSt10unique_ptrIKN5ceres12LossFunctionESt14default_deleteIS2_EE3getEv(ptr noundef nonnull align 8 dereferenceable(8) %0) #0 comdat align 2 {
  %2 = alloca ptr, align 8
  store ptr %0, ptr %2, align 8, !tbaa !70
  %3 = load ptr, ptr %2, align 8
  %4 = getelementptr inbounds nuw %"class.std::unique_ptr.2", ptr %3, i32 0, i32 0
  %5 = call noundef ptr @_ZNKSt15__uniq_ptr_implIKN5ceres12LossFunctionESt14default_deleteIS2_EE6_M_ptrEv(ptr noundef nonnull align 8 dereferenceable(8) %4) #15
  ret ptr %5
}

; Function Attrs: mustprogress nounwind uwtable
define linkonce_odr hidden noundef ptr @_ZNKSt10unique_ptrIKN5ceres12LossFunctionESt14default_deleteIS2_EEptEv(ptr noundef nonnull align 8 dereferenceable(8) %0) #0 comdat align 2 {
  %2 = alloca ptr, align 8
  store ptr %0, ptr %2, align 8, !tbaa !70
  %3 = load ptr, ptr %2, align 8
  %4 = call noundef ptr @_ZNKSt10unique_ptrIKN5ceres12LossFunctionESt14default_deleteIS2_EE3getEv(ptr noundef nonnull align 8 dereferenceable(8) %3) #15
  ret ptr %4
}

; Function Attrs: mustprogress uwtable
define hidden void @_ZNK5ceres12ComposedLoss8EvaluateEdPd(ptr noundef nonnull align 8 dereferenceable(32) %0, double noundef %1, ptr noundef %2) unnamed_addr #2 align 2 {
  %4 = alloca ptr, align 8
  %5 = alloca double, align 8
  %6 = alloca ptr, align 8
  %7 = alloca [3 x double], align 16
  %8 = alloca [3 x double], align 16
  store ptr %0, ptr %4, align 8, !tbaa !57
  store double %1, ptr %5, align 8, !tbaa !10
  store ptr %2, ptr %6, align 8, !tbaa !12
  %9 = load ptr, ptr %4, align 8
  call void @llvm.lifetime.start.p0(i64 24, ptr %7) #15
  call void @llvm.lifetime.start.p0(i64 24, ptr %8) #15
  %10 = getelementptr inbounds nuw %"class.ceres::ComposedLoss", ptr %9, i32 0, i32 2
  %11 = call noundef ptr @_ZNKSt10unique_ptrIKN5ceres12LossFunctionESt14default_deleteIS2_EEptEv(ptr noundef nonnull align 8 dereferenceable(8) %10) #15
  %12 = load double, ptr %5, align 8, !tbaa !10
  %13 = getelementptr inbounds [3 x double], ptr %8, i64 0, i64 0
  %14 = load ptr, ptr %11, align 8, !tbaa !39
  %15 = getelementptr inbounds ptr, ptr %14, i64 2
  %16 = load ptr, ptr %15, align 8
  call void %16(ptr noundef nonnull align 8 dereferenceable(8) %11, double noundef %12, ptr noundef %13)
  %17 = getelementptr inbounds nuw %"class.ceres::ComposedLoss", ptr %9, i32 0, i32 1
  %18 = call noundef ptr @_ZNKSt10unique_ptrIKN5ceres12LossFunctionESt14default_deleteIS2_EEptEv(ptr noundef nonnull align 8 dereferenceable(8) %17) #15
  %19 = getelementptr inbounds [3 x double], ptr %8, i64 0, i64 0
  %20 = load double, ptr %19, align 16, !tbaa !10
  %21 = getelementptr inbounds [3 x double], ptr %7, i64 0, i64 0
  %22 = load ptr, ptr %18, align 8, !tbaa !39
  %23 = getelementptr inbounds ptr, ptr %22, i64 2
  %24 = load ptr, ptr %23, align 8
  call void %24(ptr noundef nonnull align 8 dereferenceable(8) %18, double noundef %20, ptr noundef %21)
  %25 = getelementptr inbounds [3 x double], ptr %7, i64 0, i64 0
  %26 = load double, ptr %25, align 16, !tbaa !10
  %27 = load ptr, ptr %6, align 8, !tbaa !12
  %28 = getelementptr inbounds double, ptr %27, i64 0
  store double %26, ptr %28, align 8, !tbaa !10
  %29 = getelementptr inbounds [3 x double], ptr %7, i64 0, i64 1
  %30 = load double, ptr %29, align 8, !tbaa !10
  %31 = getelementptr inbounds [3 x double], ptr %8, i64 0, i64 1
  %32 = load double, ptr %31, align 8, !tbaa !10
  %33 = fmul double %30, %32
  %34 = load ptr, ptr %6, align 8, !tbaa !12
  %35 = getelementptr inbounds double, ptr %34, i64 1
  store double %33, ptr %35, align 8, !tbaa !10
  %36 = getelementptr inbounds [3 x double], ptr %7, i64 0, i64 2
  %37 = load double, ptr %36, align 16, !tbaa !10
  %38 = getelementptr inbounds [3 x double], ptr %8, i64 0, i64 1
  %39 = load double, ptr %38, align 8, !tbaa !10
  %40 = fmul double %37, %39
  %41 = getelementptr inbounds [3 x double], ptr %8, i64 0, i64 1
  %42 = load double, ptr %41, align 8, !tbaa !10
  %43 = getelementptr inbounds [3 x double], ptr %7, i64 0, i64 1
  %44 = load double, ptr %43, align 8, !tbaa !10
  %45 = getelementptr inbounds [3 x double], ptr %8, i64 0, i64 2
  %46 = load double, ptr %45, align 16, !tbaa !10
  %47 = fmul double %44, %46
  %48 = call double @llvm.fmuladd.f64(double %40, double %42, double %47)
  %49 = load ptr, ptr %6, align 8, !tbaa !12
  %50 = getelementptr inbounds double, ptr %49, i64 2
  store double %48, ptr %50, align 8, !tbaa !10
  call void @llvm.lifetime.end.p0(i64 24, ptr %8) #15
  call void @llvm.lifetime.end.p0(i64 24, ptr %7) #15
  ret void
}