; Function Attrs: mustprogress uwtable
define hidden void @_ZNK5ceres12ComposedLoss8EvaluateEdPd(ptr noundef nonnull readonly align 8 captures(none) dereferenceable(32) %0, double noundef %1, ptr noundef writeonly captures(none) initializes((0, 24)) %2) unnamed_addr #7 align 2 {
  %4 = alloca [3 x double], align 16
  %5 = alloca [3 x double], align 16
  call void @llvm.lifetime.start.p0(i64 24, ptr nonnull %4) #17
  call void @llvm.lifetime.start.p0(i64 24, ptr nonnull %5) #17
  %6 = getelementptr inbounds nuw i8, ptr %0, i64 16
  %7 = load ptr, ptr %6, align 8, !tbaa !39
  %8 = load ptr, ptr %7, align 8, !tbaa !22
  %9 = getelementptr inbounds nuw i8, ptr %8, i64 16
  %10 = load ptr, ptr %9, align 8
  call void %10(ptr noundef nonnull align 8 dereferenceable(8) %7, double noundef %1, ptr noundef nonnull %5)
  %11 = getelementptr inbounds nuw i8, ptr %0, i64 8
  %12 = load ptr, ptr %11, align 8, !tbaa !39
  %13 = load double, ptr %5, align 16, !tbaa !3
  %14 = load ptr, ptr %12, align 8, !tbaa !22
  %15 = getelementptr inbounds nuw i8, ptr %14, i64 16
  %16 = load ptr, ptr %15, align 8
  call void %16(ptr noundef nonnull align 8 dereferenceable(8) %12, double noundef %13, ptr noundef nonnull %4)
  %17 = load double, ptr %4, align 16, !tbaa !3
  store double %17, ptr %2, align 8, !tbaa !3
  %18 = getelementptr inbounds nuw i8, ptr %4, i64 8
  %19 = load double, ptr %18, align 8, !tbaa !3
  %20 = getelementptr inbounds nuw i8, ptr %5, i64 8
  %21 = load double, ptr %20, align 8, !tbaa !3
  %22 = fmul double %19, %21
  %23 = getelementptr inbounds nuw i8, ptr %2, i64 8
  store double %22, ptr %23, align 8, !tbaa !3
  %24 = getelementptr inbounds nuw i8, ptr %4, i64 16
  %25 = load double, ptr %24, align 16, !tbaa !3
  %26 = fmul double %21, %25
  %27 = getelementptr inbounds nuw i8, ptr %5, i64 16
  %28 = load double, ptr %27, align 16, !tbaa !3
  %29 = fmul double %19, %28
  %30 = call double @llvm.fmuladd.f64(double %26, double %21, double %29)
  %31 = getelementptr inbounds nuw i8, ptr %2, i64 16
  store double %30, ptr %31, align 8, !tbaa !3
  call void @llvm.lifetime.end.p0(i64 24, ptr nonnull %5) #17
  call void @llvm.lifetime.end.p0(i64 24, ptr nonnull %4) #17
  ret void
}